Certificate:
    Data:
        Version: 3 (0x2)
        Serial Number:
            db:51:6f:df:1f:47:99:1c
    Signature Algorithm: sha256WithRSAEncryption
        Issuer: CN = QUIC Server Root CA
        Validity
            Not Before: Jan 22 04:13:13 2019 GMT
            Not After : Jan 25 04:13:13 2019 GMT
        Subject: CN = QUIC Server Root CA
        Subject Public Key Info:
            Public Key Algorithm: rsaEncryption
                Public-Key: (2048 bit)
                Modulus:
                    00:c1:96:c7:3c:00:b6:22:26:40:df:44:9a:9d:65:
                    2b:3f:f1:30:e2:d0:bc:43:77:81:52:e0:66:98:72:
                    25:54:94:7f:fd:7a:35:e4:ba:c0:29:aa:d5:d1:e9:
                    bc:69:75:fc:07:44:95:85:ed:b4:6b:42:02:eb:b8:
                    82:d0:f5:a4:c8:31:ae:c6:e4:a6:ef:65:f4:88:09:
                    e5:c3:46:7e:46:a0:88:cb:20:b7:4b:03:83:23:8b:
                    8d:42:36:9f:ab:af:06:98:a7:50:cc:0b:34:20:bc:
                    c8:e7:7d:7c:ec:57:fa:78:64:1b:37:d4:46:7a:73:
                    89:ec:6e:c5:66:de:5a:e3:d0:2b:0e:26:06:b5:8e:
                    5a:7b:66:f6:23:aa:21:7f:15:6f:85:03:f3:f5:aa:
                    60:f4:cc:cc:71:31:52:83:e4:ef:dc:50:a9:56:4f:
                    9c:b7:0e:5a:2f:bd:b9:f4:18:50:f9:46:51:35:aa:
                    89:48:5e:82:18:51:98:08:ce:69:7f:ba:d9:aa:d6:
                    25:3b:36:6e:d6:c7:ce:53:d2:92:97:bb:6f:56:42:
                    70:50:e7:32:0f:72:bf:41:6a:ac:4c:98:1f:6c:aa:
                    16:0c:eb:81:a4:4f:1c:54:26:21:1a:5f:7a:94:3f:
                    37:0e:fd:c0:56:f5:c2:a1:e1:8a:4e:89:6d:85:b3:
                    e0:d3
                Exponent: 65537 (0x10001)
        X509v3 extensions:
            X509v3 Basic Constraints: critical
                CA:TRUE
            X509v3 Subject Key Identifier: 
                F1:52:9F:27:A5:F2:34:F5:14:01:24:A3:5E:B0:82:2B:B1:F5:E8:93
            X509v3 Key Usage: critical
                Certificate Sign, CRL Sign
    Signature Algorithm: sha256WithRSAEncryption
         89:a8:77:ef:db:cf:46:23:ed:7f:33:29:d0:ca:b7:da:ec:9c:
         33:ed:ca:f9:70:e7:bf:6c:73:04:82:46:f5:55:a2:27:30:69:
         b1:02:8b:27:a7:f9:25:43:bb:18:a9:ae:05:55:79:18:86:f7:
         4f:18:51:0f:ae:47:0a:b9:61:52:7a:77:82:2d:51:f7:42:6d:
         6d:61:57:05:aa:2b:35:65:47:46:d4:3a:e8:7e:8f:ed:6c:5e:
         9e:7b:a0:e2:3c:f3:0b:cf:06:97:56:0f:f4:b0:34:39:ea:59:
         1b:be:94:38:50:ad:3a:25:5b:e5:46:27:d0:05:f4:c8:c6:8f:
         10:8c:7a:99:73:b4:1c:64:b4:ff:ad:5d:28:44:4e:5a:b5:94:
         df:d0:8b:ef:5d:10:4e:e6:63:ef:96:d5:b6:f1:70:71:05:2d:
         22:5b:13:83:06:0b:9e:1d:d8:ad:6a:1e:71:d5:c3:31:32:5d:
         42:8f:a1:25:82:35:43:32:1f:2b:1a:be:c8:d0:d7:5e:b6:90:
         db:d2:1f:f7:e4:d9:ce:52:01:09:97:16:20:df:e5:02:26:74:
         3f:f6:f6:f2:3d:df:b1:df:a1:f9:92:f5:9e:91:fe:2b:17:bc:
         20:29:6b:19:29:51:f2:e2:4a:2f:f6:64:d9:c7:a5:7c:4f:55:
         61:0c:a6:fe
-----BEGIN CERTIFICATE-----
MIIDATCCAemgAwIBAgIJANtRb98fR5kcMA0GCSqGSIb3DQEBCwUAMB4xHDAaBgNV
BAMME1FVSUMgU2VydmVyIFJvb3QgQ0EwHhcNMTkwMTIyMDQxMzEzWhcNMTkwMTI1
MDQxMzEzWjAeMRwwGgYDVQQDDBNRVUlDIFNlcnZlciBSb290IENBMIIBIjANBgkq
hkiG9w0BAQEFAAOCAQ8AMIIBCgKCAQEAwZbHPAC2IiZA30SanWUrP/Ew4tC8Q3eB
UuBmmHIlVJR//Xo15LrAKarV0em8aXX8B0SVhe20a0IC67iC0PWkyDGuxuSm72X0
iAnlw0Z+RqCIyyC3SwODI4uNQjafq68GmKdQzAs0ILzI53187Ff6eGQbN9RGenOJ
7G7FZt5a49ArDiYGtY5ae2b2I6ohfxVvhQPz9apg9MzMcTFSg+Tv3FCpVk+ctw5a
L7259BhQ+UZRNaqJSF6CGFGYCM5pf7rZqtYlOzZu1sfOU9KSl7tvVkJwUOcyD3K/
QWqsTJgfbKoWDOuBpE8cVCYhGl96lD83Dv3AVvXCoeGKTolthbPg0wIDAQABo0Iw
QDAPBgNVHRMBAf8EBTADAQH/MB0GA1UdDgQWBBTxUp8npfI09RQBJKNesIIrsfXo
kzAOBgNVHQ8BAf8EBAMCAQYwDQYJKoZIhvcNAQELBQADggEBAImod+/bz0Yj7X8z
KdDKt9rsnDPtyvlw579scwSCRvVVoicwabECiyen+SVDuxiprgVVeRiG908YUQ+u
Rwq5YVJ6d4ItUfdCbW1hVwWqKzVlR0bUOuh+j+1sXp57oOI88wvPBpdWD/SwNDnq
WRu+lDhQrTolW+VGJ9AF9MjGjxCMeplztBxktP+tXShETlq1lN/Qi+9dEE7mY++W
1bbxcHEFLSJbE4MGC54d2K1qHnHVwzEyXUKPoSWCNUMyHysavsjQ1162kNvSH/fk
2c5SAQmXFiDf5QImdD/29vI937HfofmS9Z6R/isXvCApaxkpUfLiSi/2ZNnHpXxP
VWEMpv4=
-----END CERTIFICATE-----
