Certificate:
    Data:
        Version: 3 (0x2)
        Serial Number: 1 (0x1)
    Signature Algorithm: sha256WithRSAEncryption
        Issuer: CN=QUIC Server Root CA
        Validity
            Not Before: Jan 22 04:13:13 2019 GMT
            Not After : Jan 25 04:13:13 2019 GMT
        Subject: C=US, ST=California, L=Mountain View, O=QUIC Server, CN=127.0.0.1
        Subject Public Key Info:
            Public Key Algorithm: rsaEncryption
                Public-Key: (2048 bit)
                Modulus:
                    00:bc:d6:71:55:82:d2:a6:57:e2:6b:f2:8a:22:32:
                    ef:e8:e1:ac:b3:2b:72:de:8b:9a:3b:a2:a9:f9:46:
                    3c:60:9f:e2:09:36:2f:e5:11:15:62:fa:8b:c7:f3:
                    42:de:8b:6b:51:72:ba:90:91:4f:70:84:98:21:15:
                    62:97:15:fa:70:4d:e6:c9:72:7a:2b:eb:dc:7e:ba:
                    db:6b:99:2e:a0:3f:81:a5:8d:b4:2b:42:b9:e1:c8:
                    92:81:3b:01:8b:55:b2:e3:84:d0:8e:24:58:ff:9e:
                    c6:a0:4b:f8:e1:20:db:71:11:c3:93:0a:ef:4c:10:
                    d5:8f:c5:29:c6:9f:52:1a:ac:6b:cc:5d:ab:26:7b:
                    3b:ce:0a:5c:c5:02:79:df:33:62:c7:e7:89:65:ae:
                    9e:73:db:0a:3d:fa:8b:15:bb:25:e0:64:8e:2f:f7:
                    da:8b:15:65:37:47:96:8f:96:4f:b0:04:02:24:93:
                    d1:81:76:51:29:f1:99:6e:2f:98:bf:b6:a3:45:45:
                    48:69:03:d0:01:03:3c:0c:b3:f7:11:b8:c6:94:86:
                    93:f2:91:79:9c:6b:a9:d5:6c:95:55:1a:7c:e8:20:
                    bd:f5:74:a3:d9:8d:85:ba:ec:8c:40:a2:a7:c8:54:
                    ea:9f:2e:a4:55:4a:6a:cf:8f:0c:94:e9:1f:8f:9a:
                    3b:db
                Exponent: 65537 (0x10001)
        X509v3 extensions:
            X509v3 Basic Constraints: critical
                CA:FALSE
            X509v3 Subject Key Identifier: 
                FF:9D:0F:06:DB:CD:73:78:FE:04:28:33:2F:FF:6F:90:A5:8E:C2:9E
            X509v3 Authority Key Identifier: 
                keyid:F1:52:9F:27:A5:F2:34:F5:14:01:24:A3:5E:B0:82:2B:B1:F5:E8:93

            X509v3 Extended Key Usage: 
                TLS Web Server Authentication, TLS Web Client Authentication
            X509v3 Subject Alternative Name: 
                DNS:www.example.org, DNS:mail.example.org, DNS:mail.example.com, IP Address:127.0.0.1
    Signature Algorithm: sha256WithRSAEncryption
         ab:2d:c3:6d:9b:b3:57:8c:b6:9f:41:1a:06:8e:a3:27:a4:94:
         99:65:59:f4:53:4a:f2:3e:0f:ee:3b:f2:f7:00:5f:62:62:a4:
         db:80:2c:75:7f:4e:3a:e9:90:2a:d2:40:22:c5:4d:5a:f1:f5:
         ca:ab:32:d1:44:46:8e:ae:d7:13:06:cd:54:20:c4:42:92:63:
         07:98:b1:f5:32:25:b9:3f:f5:51:70:79:78:74:1d:02:69:70:
         a5:31:0d:b7:43:72:f9:02:ec:9a:6e:9c:b2:84:4d:6d:51:a9:
         31:b9:90:05:63:c6:2c:1d:cd:40:be:67:2f:04:59:e0:7a:1c:
         ab:84:26:be:85:9d:90:50:fa:b4:b8:7a:02:24:ec:4a:e1:d5:
         96:d6:68:bf:56:b2:fb:9f:eb:5a:58:3a:ec:4a:e8:c4:6c:67:
         91:fe:ad:b4:f7:d2:63:13:cb:ec:9f:26:5e:4b:b0:51:c1:bd:
         86:6a:c2:80:80:fc:ec:89:37:81:4a:64:c2:99:49:98:ee:65:
         24:6f:b1:96:80:43:14:1c:f2:64:7c:30:28:92:0c:b9:dd:c7:
         78:1c:4b:01:75:eb:a8:4b:40:82:52:df:42:c4:ae:23:75:1d:
         b7:fc:0e:9b:e6:1f:25:04:d8:b9:c5:af:5f:03:fc:cc:30:c7:
         0b:bf:e9:a0
-----BEGIN CERTIFICATE-----
MIIDtDCCApygAwIBAgIBATANBgkqhkiG9w0BAQsFADAeMRwwGgYDVQQDDBNRVUlD
IFNlcnZlciBSb290IENBMB4XDTE5MDEyMjA0MTMxM1oXDTE5MDEyNTA0MTMxM1ow
ZDELMAkGA1UEBhMCVVMxEzARBgNVBAgMCkNhbGlmb3JuaWExFjAUBgNVBAcMDU1v
dW50YWluIFZpZXcxFDASBgNVBAoMC1FVSUMgU2VydmVyMRIwEAYDVQQDDAkxMjcu
MC4wLjEwggEiMA0GCSqGSIb3DQEBAQUAA4IBDwAwggEKAoIBAQC81nFVgtKmV+Jr
8ooiMu/o4ayzK3Lei5o7oqn5Rjxgn+IJNi/lERVi+ovH80Lei2tRcrqQkU9whJgh
FWKXFfpwTebJcnor69x+uttrmS6gP4GljbQrQrnhyJKBOwGLVbLjhNCOJFj/nsag
S/jhINtxEcOTCu9MENWPxSnGn1IarGvMXasmezvOClzFAnnfM2LH54llrp5z2wo9
+osVuyXgZI4v99qLFWU3R5aPlk+wBAIkk9GBdlEp8ZluL5i/tqNFRUhpA9ABAzwM
s/cRuMaUhpPykXmca6nVbJVVGnzoIL31dKPZjYW67IxAoqfIVOqfLqRVSmrPjwyU
6R+PmjvbAgMBAAGjgbYwgbMwDAYDVR0TAQH/BAIwADAdBgNVHQ4EFgQU/50PBtvN
c3j+BCgzL/9vkKWOwp4wHwYDVR0jBBgwFoAU8VKfJ6XyNPUUASSjXrCCK7H16JMw
HQYDVR0lBBYwFAYIKwYBBQUHAwEGCCsGAQUFBwMCMEQGA1UdEQQ9MDuCD3d3dy5l
eGFtcGxlLm9yZ4IQbWFpbC5leGFtcGxlLm9yZ4IQbWFpbC5leGFtcGxlLmNvbYcE
fwAAATANBgkqhkiG9w0BAQsFAAOCAQEAqy3DbZuzV4y2n0EaBo6jJ6SUmWVZ9FNK
8j4P7jvy9wBfYmKk24AsdX9OOumQKtJAIsVNWvH1yqsy0URGjq7XEwbNVCDEQpJj
B5ix9TIluT/1UXB5eHQdAmlwpTENt0Ny+QLsmm6csoRNbVGpMbmQBWPGLB3NQL5n
LwRZ4Hocq4QmvoWdkFD6tLh6AiTsSuHVltZov1ay+5/rWlg67EroxGxnkf6ttPfS
YxPL7J8mXkuwUcG9hmrCgID87Ik3gUpkwplJmO5lJG+xloBDFBzyZHwwKJIMud3H
eBxLAXXrqEtAglLfQsSuI3Udt/wOm+YfJQTYucWvXwP8zDDHC7/poA==
-----END CERTIFICATE-----
